target datalayout = "e-m:e-p270:32:32-p271:32:32-p272:64:64-i64:64-i128:128-f80:128-n8:16:32:64-S128"
target triple = "x86_64-pc-linux-gnu"

%struct._ir_elf_header = type { [4 x i8], i8, i8, i8, i8, i8, [7 x i8], i16, i16, i32, i64, i64, i64, i32, i16, i16, i16, i16, i16, i16 }
%struct.ir_perf_jitdump_header = type { i32, i32, i32, i32, i32, i32, i64, i64 }
%struct.timespec = type { i64, i64 }

@.str = private unnamed_addr constant [17 x i8] c"/tmp/jit-%d.dump\00", align 1
@.str.1 = private unnamed_addr constant [15 x i8] c"/proc/self/exe\00", align 1
@jitdump_fd = internal global i32 -1, align 4
@jitdump_mem = internal global ptr inttoptr (i64 -1 to ptr), align 8

; Function Attrs: nounwind uwtable
define internal i64 @ir_perf_timestamp() #0 {
  %1 = alloca i64, align 8
  %2 = alloca %struct.timespec, align 8
  %3 = call i32 @clock_gettime(i32 noundef 1, ptr noundef %2) #5
  %4 = icmp ne i32 %3, 0
  br i1 %4, label %5, label %6

5:                                                ; preds = %0
  store i64 0, ptr %1, align 8
  br label %13

6:                                                ; preds = %0
  %7 = getelementptr inbounds %struct.timespec, ptr %2, i32 0, i32 0
  %8 = load i64, ptr %7, align 8
  %9 = mul i64 %8, 1000000000
  %10 = getelementptr inbounds %struct.timespec, ptr %2, i32 0, i32 1
  %11 = load i64, ptr %10, align 8
  %12 = add i64 %9, %11
  store i64 %12, ptr %1, align 8
  br label %13

13:                                               ; preds = %6, %5
  %14 = load i64, ptr %1, align 8
  ret i64 %14
}

; Function Attrs: nounwind uwtable
define hidden i32 @ir_perf_jitdump_open() #0 {
  %1 = alloca i32, align 4
  %2 = alloca [64 x i8], align 16
  %3 = alloca i32, align 4
  %4 = alloca i32, align 4
  %5 = alloca %struct._ir_elf_header, align 8
  %6 = alloca %struct.ir_perf_jitdump_header, align 8
  %7 = getelementptr inbounds [64 x i8], ptr %2, i64 0, i64 0
  %8 = call i32 @getpid() #5
  %9 = call i32 (ptr, i64, ptr, ...) @snprintf(ptr noundef %7, i64 noundef 64, ptr noundef @.str, i32 noundef %8) #5
  %10 = call i64 @ir_perf_timestamp()
  %11 = icmp ne i64 %10, 0
  br i1 %11, label %13, label %12

12:                                               ; preds = %0
  store i32 0, ptr %1, align 4
  br label %85

13:                                               ; preds = %0
  %14 = call i32 (ptr, i32, ...) @open(ptr noundef @.str.1, i32 noundef 0)
  store i32 %14, ptr %3, align 4
  %15 = load i32, ptr %3, align 4
  %16 = icmp slt i32 %15, 0
  br i1 %16, label %17, label %18

17:                                               ; preds = %13
  store i32 0, ptr %1, align 4
  br label %85

18:                                               ; preds = %13
  %19 = load i32, ptr %3, align 4
  %20 = call i64 @read(i32 noundef %19, ptr noundef %5, i64 noundef 64)
  %21 = trunc i64 %20 to i32
  store i32 %21, ptr %4, align 4
  %22 = load i32, ptr %3, align 4
  %23 = call i32 @close(i32 noundef %22)
  %24 = load i32, ptr %4, align 4
  %25 = sext i32 %24 to i64
  %26 = icmp ne i64 %25, 64
  br i1 %26, label %51, label %27

27:                                               ; preds = %18
  %28 = getelementptr inbounds %struct._ir_elf_header, ptr %5, i32 0, i32 0
  %29 = getelementptr inbounds [4 x i8], ptr %28, i64 0, i64 0
  %30 = load i8, ptr %29, align 8
  %31 = zext i8 %30 to i32
  %32 = icmp ne i32 %31, 127
  br i1 %32, label %51, label %33

33:                                               ; preds = %27
  %34 = getelementptr inbounds %struct._ir_elf_header, ptr %5, i32 0, i32 0
  %35 = getelementptr inbounds [4 x i8], ptr %34, i64 0, i64 1
  %36 = load i8, ptr %35, align 1
  %37 = zext i8 %36 to i32
  %38 = icmp ne i32 %37, 69
  br i1 %38, label %51, label %39

39:                                               ; preds = %33
  %40 = getelementptr inbounds %struct._ir_elf_header, ptr %5, i32 0, i32 0
  %41 = getelementptr inbounds [4 x i8], ptr %40, i64 0, i64 2
  %42 = load i8, ptr %41, align 2
  %43 = zext i8 %42 to i32
  %44 = icmp ne i32 %43, 76
  br i1 %44, label %51, label %45

45:                                               ; preds = %39
  %46 = getelementptr inbounds %struct._ir_elf_header, ptr %5, i32 0, i32 0
  %47 = getelementptr inbounds [4 x i8], ptr %46, i64 0, i64 3
  %48 = load i8, ptr %47, align 1
  %49 = zext i8 %48 to i32
  %50 = icmp ne i32 %49, 70
  br i1 %50, label %51, label %52

51:                                               ; preds = %45, %39, %33, %27, %18
  store i32 0, ptr %1, align 4
  br label %85

52:                                               ; preds = %45
  %53 = getelementptr inbounds [64 x i8], ptr %2, i64 0, i64 0
  %54 = call i32 (ptr, i32, ...) @open(ptr noundef %53, i32 noundef 578, i32 noundef 438)
  store i32 %54, ptr @jitdump_fd, align 4
  %55 = load i32, ptr @jitdump_fd, align 4
  %56 = icmp slt i32 %55, 0
  br i1 %56, label %57, label %58

57:                                               ; preds = %52
  store i32 0, ptr %1, align 4
  br label %85

58:                                               ; preds = %52
  %59 = call i64 @sysconf(i32 noundef 30) #5
  %60 = load i32, ptr @jitdump_fd, align 4
  %61 = call ptr @mmap(ptr noundef null, i64 noundef %59, i32 noundef 5, i32 noundef 2, i32 noundef %60, i64 noundef 0) #5
  store ptr %61, ptr @jitdump_mem, align 8
  %62 = load ptr, ptr @jitdump_mem, align 8
  %63 = icmp eq ptr %62, inttoptr (i64 -1 to ptr)
  br i1 %63, label %64, label %67

64:                                               ; preds = %58
  %65 = load i32, ptr @jitdump_fd, align 4
  %66 = call i32 @close(i32 noundef %65)
  store i32 -1, ptr @jitdump_fd, align 4
  store i32 0, ptr %1, align 4
  br label %85

67:                                               ; preds = %58
  call void @llvm.memset.p0.i64(ptr align 8 %6, i8 0, i64 40, i1 false)
  %68 = getelementptr inbounds %struct.ir_perf_jitdump_header, ptr %6, i32 0, i32 0
  store i32 1248416836, ptr %68, align 8
  %69 = getelementptr inbounds %struct.ir_perf_jitdump_header, ptr %6, i32 0, i32 1
  store i32 1, ptr %69, align 4
  %70 = getelementptr inbounds %struct.ir_perf_jitdump_header, ptr %6, i32 0, i32 2
  store i32 40, ptr %70, align 8
  %71 = getelementptr inbounds %struct._ir_elf_header, ptr %5, i32 0, i32 8
  %72 = load i16, ptr %71, align 2
  %73 = zext i16 %72 to i32
  %74 = getelementptr inbounds %struct.ir_perf_jitdump_header, ptr %6, i32 0, i32 3
  store i32 %73, ptr %74, align 4
  %75 = call i32 @getpid() #5
  %76 = getelementptr inbounds %struct.ir_perf_jitdump_header, ptr %6, i32 0, i32 5
  store i32 %75, ptr %76, align 4
  %77 = call i64 @ir_perf_timestamp()
  %78 = getelementptr inbounds %struct.ir_perf_jitdump_header, ptr %6, i32 0, i32 6
  store i64 %77, ptr %78, align 8
  %79 = getelementptr inbounds %struct.ir_perf_jitdump_header, ptr %6, i32 0, i32 7
  store i64 0, ptr %79, align 8
  %80 = load i32, ptr @jitdump_fd, align 4
  %81 = call i64 @write(i32 noundef %80, ptr noundef %6, i64 noundef 40)
  %82 = icmp ne i64 %81, 40
  br i1 %82, label %83, label %84

83:                                               ; preds = %67
  store i32 0, ptr %1, align 4
  br label %85

84:                                               ; preds = %67
  store i32 1, ptr %1, align 4
  br label %85

85:                                               ; preds = %84, %83, %64, %57, %51, %17, %12
  %86 = load i32, ptr %1, align 4
  ret i32 %86
}