; Function Attrs: nounwind uwtable
define hidden noundef i32 @ir_perf_jitdump_open() local_unnamed_addr #0 {
  %1 = alloca %struct.timespec, align 8
  %2 = alloca %struct.timespec, align 8
  %3 = alloca [64 x i8], align 16
  %4 = alloca %struct._ir_elf_header, align 8
  %5 = alloca %struct.ir_perf_jitdump_header, align 8
  %6 = tail call i32 @getpid() #7
  %7 = call i32 (ptr, i64, ptr, ...) @snprintf(ptr noundef nonnull dereferenceable(1) %3, i64 noundef 64, ptr noundef nonnull @.str, i32 noundef %6) #7
  call void @llvm.lifetime.start.p0(i64 16, ptr nonnull %2)
  %8 = call i32 @clock_gettime(i32 noundef 1, ptr noundef nonnull %2) #7
  %.not.i = icmp eq i32 %8, 0
  br i1 %.not.i, label %ir_perf_timestamp.exit, label %ir_perf_timestamp.exit.thread

ir_perf_timestamp.exit.thread:                    ; preds = %0
  call void @llvm.lifetime.end.p0(i64 16, ptr nonnull %2)
  br label %55

ir_perf_timestamp.exit:                           ; preds = %0
  %9 = load i64, ptr %2, align 8
  %10 = mul i64 %9, 1000000000
  %11 = getelementptr inbounds i8, ptr %2, i64 8
  %12 = load i64, ptr %11, align 8
  call void @llvm.lifetime.end.p0(i64 16, ptr nonnull %2)
  %13 = sub i64 0, %12
  %.not = icmp eq i64 %10, %13
  br i1 %.not, label %55, label %14

14:                                               ; preds = %ir_perf_timestamp.exit
  %15 = call i32 (ptr, i32, ...) @open(ptr noundef nonnull @.str.1, i32 noundef 0) #7
  %16 = icmp slt i32 %15, 0
  br i1 %16, label %55, label %17

17:                                               ; preds = %14
  %18 = call i64 @read(i32 noundef %15, ptr noundef nonnull %4, i64 noundef 64) #7
  %19 = call i32 @close(i32 noundef %15) #7
  %sext.mask = and i64 %18, 4294967295
  %20 = icmp ne i64 %sext.mask, 64
  %21 = load <4 x i8>, ptr %4, align 8
  %.fr = freeze <4 x i8> %21
  %.fr.scalar = bitcast <4 x i8> %.fr to i32
  %22 = icmp ne i32 %.fr.scalar, 1179403647
  %op.rdx = or i1 %20, %22
  br i1 %op.rdx, label %55, label %23

23:                                               ; preds = %17
  %24 = call i32 (ptr, i32, ...) @open(ptr noundef nonnull %3, i32 noundef 578, i32 noundef 438) #7
  store i32 %24, ptr @jitdump_fd, align 4
  %25 = icmp slt i32 %24, 0
  br i1 %25, label %55, label %26

26:                                               ; preds = %23
  %27 = call i64 @sysconf(i32 noundef 30) #7
  %28 = load i32, ptr @jitdump_fd, align 4
  %29 = call ptr @mmap(ptr noundef null, i64 noundef %27, i32 noundef 5, i32 noundef 2, i32 noundef %28, i64 noundef 0) #7
  store ptr %29, ptr @jitdump_mem, align 8
  %30 = icmp eq ptr %29, inttoptr (i64 -1 to ptr)
  br i1 %30, label %31, label %34

31:                                               ; preds = %26
  %32 = load i32, ptr @jitdump_fd, align 4
  %33 = call i32 @close(i32 noundef %32) #7
  store i32 -1, ptr @jitdump_fd, align 4
  br label %55

34:                                               ; preds = %26
  %35 = getelementptr inbounds i8, ptr %5, i64 16
  store i64 0, ptr %35, align 8
  store i32 1248416836, ptr %5, align 8
  %36 = getelementptr inbounds i8, ptr %5, i64 4
  store i32 1, ptr %36, align 4
  %37 = getelementptr inbounds i8, ptr %5, i64 8
  store i32 40, ptr %37, align 8
  %38 = getelementptr inbounds i8, ptr %4, i64 18
  %39 = load i16, ptr %38, align 2
  %40 = zext i16 %39 to i32
  %41 = getelementptr inbounds i8, ptr %5, i64 12
  store i32 %40, ptr %41, align 4
  %42 = call i32 @getpid() #7
  %43 = getelementptr inbounds i8, ptr %5, i64 20
  store i32 %42, ptr %43, align 4
  call void @llvm.lifetime.start.p0(i64 16, ptr nonnull %1)
  %44 = call i32 @clock_gettime(i32 noundef 1, ptr noundef nonnull %1) #7
  %.not.i26 = icmp eq i32 %44, 0
  br i1 %.not.i26, label %45, label %ir_perf_timestamp.exit28

45:                                               ; preds = %34
  %46 = load i64, ptr %1, align 8
  %47 = mul i64 %46, 1000000000
  %48 = getelementptr inbounds i8, ptr %1, i64 8
  %49 = load i64, ptr %48, align 8
  %50 = add i64 %47, %49
  br label %ir_perf_timestamp.exit28

ir_perf_timestamp.exit28:                         ; preds = %34, %45
  %.0.i27 = phi i64 [ %50, %45 ], [ 0, %34 ]
  call void @llvm.lifetime.end.p0(i64 16, ptr nonnull %1)
  %51 = getelementptr inbounds i8, ptr %5, i64 24
  store i64 %.0.i27, ptr %51, align 8
  %52 = getelementptr inbounds i8, ptr %5, i64 32
  store i64 0, ptr %52, align 8
  %53 = load i32, ptr @jitdump_fd, align 4
  %54 = call i64 @write(i32 noundef %53, ptr noundef nonnull %5, i64 noundef 40) #7
  %.not25 = icmp eq i64 %54, 40
  %. = zext i1 %.not25 to i32
  br label %55

55:                                               ; preds = %ir_perf_timestamp.exit.thread, %ir_perf_timestamp.exit28, %23, %17, %14, %ir_perf_timestamp.exit, %31
  %.0 = phi i32 [ 0, %31 ], [ 0, %ir_perf_timestamp.exit ], [ 0, %14 ], [ 0, %17 ], [ 0, %23 ], [ %., %ir_perf_timestamp.exit28 ], [ 0, %ir_perf_timestamp.exit.thread ]
  ret i32 %.0
}